target datalayout = "e-m:e-p270:32:32-p271:32:32-p272:64:64-i64:64-i128:128-f80:128-n8:16:32:64-S128"
target triple = "x86_64-pc-linux-gnu"

%struct._MAD = type { i8, i8, i8, i8, i16, i8, i8, i64, i16, i16, i32 }

@hf_opa_reserved24 = internal global i32 0, align 4
@hf_opa_SwitchCongestionLog = internal global i32 0, align 4
@hf_opa_SwitchCongestionLog_LogType = internal global i32 0, align 4
@hf_opa_SwitchCongestionLog_CongestionFlags = internal global i32 0, align 4
@hf_opa_SwitchCongestionLog_LogEventsCounter = internal global i32 0, align 4
@hf_opa_SwitchCongestionLog_CurrentTimeStamp = internal global i32 0, align 4
@hf_opa_SwitchCongestionLog_PortMap = internal global i32 0, align 4
@hf_opa_SwitchCongestionLog_SLID = internal global i32 0, align 4
@hf_opa_SwitchCongestionLog_DLID = internal global i32 0, align 4
@hf_opa_SwitchCongestionLog_SC = internal global i32 0, align 4
@hf_opa_SwitchCongestionLog_reserved = internal global i32 0, align 4
@hf_opa_SwitchCongestionLog_TimeStamp = internal global i32 0, align 4
@ett_switchcongestionlog = internal global i32 0, align 4
@ett_switchcongestionlog_entry = internal global i32 0, align 4
@.str.2364 = private unnamed_addr constant [31 x i8] c"Switch Congestion Log Entry %u\00", align 1

; Function Attrs: null_pointer_is_valid sspstrong uwtable
define internal i32 @parse_SwitchCongestionLog(ptr noundef %0, ptr noundef %1, ptr noundef %2, ptr noundef %3) #0 {
  %5 = alloca i32, align 4
  %6 = alloca ptr, align 8
  %7 = alloca ptr, align 8
  %8 = alloca ptr, align 8
  %9 = alloca ptr, align 8
  %10 = alloca i32, align 4
  %11 = alloca ptr, align 8
  %12 = alloca ptr, align 8
  %13 = alloca ptr, align 8
  %14 = alloca i32, align 4
  %15 = alloca i32, align 4
  store ptr %0, ptr %6, align 8
  store ptr %1, ptr %7, align 8
  store ptr %2, ptr %8, align 8
  store ptr %3, ptr %9, align 8
  call void @llvm.lifetime.start.p0(i64 4, ptr %10) #7
  %16 = load ptr, ptr %8, align 8
  %17 = load i32, ptr %16, align 4
  store i32 %17, ptr %10, align 4
  call void @llvm.lifetime.start.p0(i64 8, ptr %11) #7
  call void @llvm.lifetime.start.p0(i64 8, ptr %12) #7
  call void @llvm.lifetime.start.p0(i64 8, ptr %13) #7
  call void @llvm.lifetime.start.p0(i64 4, ptr %14) #7
  %18 = load ptr, ptr %6, align 8
  %19 = icmp ne ptr %18, null
  br i1 %19, label %20, label %32

20:                                               ; preds = %4
  %21 = load ptr, ptr %9, align 8
  %22 = getelementptr inbounds nuw %struct._MAD, ptr %21, i32 0, i32 3
  %23 = load i8, ptr %22, align 1
  %24 = zext i8 %23 to i32
  %25 = icmp eq i32 %24, 1
  br i1 %25, label %32, label %26

26:                                               ; preds = %20
  %27 = load ptr, ptr %9, align 8
  %28 = getelementptr inbounds nuw %struct._MAD, ptr %27, i32 0, i32 3
  %29 = load i8, ptr %28, align 1
  %30 = zext i8 %29 to i32
  %31 = icmp eq i32 %30, 18
  br i1 %31, label %32, label %35

32:                                               ; preds = %26, %20, %4
  %33 = load ptr, ptr %8, align 8
  %34 = load i32, ptr %33, align 4
  store i32 %34, ptr %5, align 4
  store i32 1, ptr %15, align 4
  br label %134

35:                                               ; preds = %26
  %36 = load ptr, ptr %6, align 8
  %37 = load i32, ptr @hf_opa_SwitchCongestionLog, align 4
  %38 = load ptr, ptr %7, align 8
  %39 = load i32, ptr %10, align 4
  %40 = call ptr @proto_tree_add_item(ptr noundef %36, i32 noundef %37, ptr noundef %38, i32 noundef %39, i32 noundef 1576, i32 noundef 0)
  store ptr %40, ptr %11, align 8
  %41 = load ptr, ptr %11, align 8
  %42 = load i32, ptr @ett_switchcongestionlog, align 4
  %43 = call ptr @proto_item_add_subtree(ptr noundef %41, i32 noundef %42)
  store ptr %43, ptr %12, align 8
  %44 = load ptr, ptr %12, align 8
  %45 = load i32, ptr @hf_opa_SwitchCongestionLog_LogType, align 4
  %46 = load ptr, ptr %7, align 8
  %47 = load i32, ptr %10, align 4
  %48 = call ptr @proto_tree_add_item(ptr noundef %44, i32 noundef %45, ptr noundef %46, i32 noundef %47, i32 noundef 1, i32 noundef 0)
  %49 = load i32, ptr %10, align 4
  %50 = add i32 %49, 1
  store i32 %50, ptr %10, align 4
  %51 = load ptr, ptr %12, align 8
  %52 = load i32, ptr @hf_opa_SwitchCongestionLog_CongestionFlags, align 4
  %53 = load ptr, ptr %7, align 8
  %54 = load i32, ptr %10, align 4
  %55 = call ptr @proto_tree_add_item(ptr noundef %51, i32 noundef %52, ptr noundef %53, i32 noundef %54, i32 noundef 1, i32 noundef 0)
  %56 = load i32, ptr %10, align 4
  %57 = add i32 %56, 1
  store i32 %57, ptr %10, align 4
  %58 = load ptr, ptr %12, align 8
  %59 = load i32, ptr @hf_opa_SwitchCongestionLog_LogEventsCounter, align 4
  %60 = load ptr, ptr %7, align 8
  %61 = load i32, ptr %10, align 4
  %62 = call ptr @proto_tree_add_item(ptr noundef %58, i32 noundef %59, ptr noundef %60, i32 noundef %61, i32 noundef 2, i32 noundef 0)
  %63 = load i32, ptr %10, align 4
  %64 = add i32 %63, 2
  store i32 %64, ptr %10, align 4
  %65 = load ptr, ptr %12, align 8
  %66 = load i32, ptr @hf_opa_SwitchCongestionLog_CurrentTimeStamp, align 4
  %67 = load ptr, ptr %7, align 8
  %68 = load i32, ptr %10, align 4
  %69 = call ptr @proto_tree_add_item(ptr noundef %65, i32 noundef %66, ptr noundef %67, i32 noundef %68, i32 noundef 4, i32 noundef 0)
  %70 = load i32, ptr %10, align 4
  %71 = add i32 %70, 4
  store i32 %71, ptr %10, align 4
  %72 = load ptr, ptr %12, align 8
  %73 = load i32, ptr @hf_opa_SwitchCongestionLog_PortMap, align 4
  %74 = load ptr, ptr %7, align 8
  %75 = load i32, ptr %10, align 4
  %76 = call ptr @proto_tree_add_item(ptr noundef %72, i32 noundef %73, ptr noundef %74, i32 noundef %75, i32 noundef 32, i32 noundef 0)
  %77 = load i32, ptr %10, align 4
  %78 = add i32 %77, 32
  store i32 %78, ptr %10, align 4
  store i32 0, ptr %14, align 4
  br label %79

79:                                               ; preds = %129, %35
  %80 = load i32, ptr %14, align 4
  %81 = icmp ult i32 %80, 96
  br i1 %81, label %82, label %132

82:                                               ; preds = %79
  %83 = load ptr, ptr %12, align 8
  %84 = load ptr, ptr %7, align 8
  %85 = load i32, ptr %10, align 4
  %86 = load i32, ptr @ett_switchcongestionlog_entry, align 4
  %87 = load i32, ptr %14, align 4
  %88 = call ptr (ptr, ptr, i32, i32, i32, ptr, ptr, ...) @proto_tree_add_subtree_format(ptr noundef %83, ptr noundef %84, i32 noundef %85, i32 noundef 16, i32 noundef %86, ptr noundef null, ptr noundef @.str.2364, i32 noundef %87)
  store ptr %88, ptr %13, align 8
  %89 = load ptr, ptr %13, align 8
  %90 = load i32, ptr @hf_opa_SwitchCongestionLog_SLID, align 4
  %91 = load ptr, ptr %7, align 8
  %92 = load i32, ptr %10, align 4
  %93 = call ptr @proto_tree_add_item(ptr noundef %89, i32 noundef %90, ptr noundef %91, i32 noundef %92, i32 noundef 4, i32 noundef 0)
  %94 = load i32, ptr %10, align 4
  %95 = add i32 %94, 4
  store i32 %95, ptr %10, align 4
  %96 = load ptr, ptr %13, align 8
  %97 = load i32, ptr @hf_opa_SwitchCongestionLog_DLID, align 4
  %98 = load ptr, ptr %7, align 8
  %99 = load i32, ptr %10, align 4
  %100 = call ptr @proto_tree_add_item(ptr noundef %96, i32 noundef %97, ptr noundef %98, i32 noundef %99, i32 noundef 4, i32 noundef 0)
  %101 = load i32, ptr %10, align 4
  %102 = add i32 %101, 4
  store i32 %102, ptr %10, align 4
  %103 = load ptr, ptr %13, align 8
  %104 = load i32, ptr @hf_opa_SwitchCongestionLog_SC, align 4
  %105 = load ptr, ptr %7, align 8
  %106 = load i32, ptr %10, align 4
  %107 = call ptr @proto_tree_add_item(ptr noundef %103, i32 noundef %104, ptr noundef %105, i32 noundef %106, i32 noundef 1, i32 noundef 0)
  %108 = load ptr, ptr %13, align 8
  %109 = load i32, ptr @hf_opa_SwitchCongestionLog_reserved, align 4
  %110 = load ptr, ptr %7, align 8
  %111 = load i32, ptr %10, align 4
  %112 = call ptr @proto_tree_add_item(ptr noundef %108, i32 noundef %109, ptr noundef %110, i32 noundef %111, i32 noundef 1, i32 noundef 0)
  %113 = load i32, ptr %10, align 4
  %114 = add i32 %113, 1
  store i32 %114, ptr %10, align 4
  %115 = load ptr, ptr %13, align 8
  %116 = load i32, ptr @hf_opa_reserved24, align 4
  %117 = load ptr, ptr %7, align 8
  %118 = load i32, ptr %10, align 4
  %119 = call ptr @proto_tree_add_item(ptr noundef %115, i32 noundef %116, ptr noundef %117, i32 noundef %118, i32 noundef 3, i32 noundef 0)
  %120 = load i32, ptr %10, align 4
  %121 = add i32 %120, 3
  store i32 %121, ptr %10, align 4
  %122 = load ptr, ptr %13, align 8
  %123 = load i32, ptr @hf_opa_SwitchCongestionLog_TimeStamp, align 4
  %124 = load ptr, ptr %7, align 8
  %125 = load i32, ptr %10, align 4
  %126 = call ptr @proto_tree_add_item(ptr noundef %122, i32 noundef %123, ptr noundef %124, i32 noundef %125, i32 noundef 4, i32 noundef 0)
  %127 = load i32, ptr %10, align 4
  %128 = add i32 %127, 4
  store i32 %128, ptr %10, align 4
  br label %129

129:                                              ; preds = %82
  %130 = load i32, ptr %14, align 4
  %131 = add i32 %130, 1
  store i32 %131, ptr %14, align 4
  br label %79, !llvm.loop !39

132:                                              ; preds = %79
  %133 = load i32, ptr %10, align 4
  store i32 %133, ptr %5, align 4
  store i32 1, ptr %15, align 4
  br label %134

134:                                              ; preds = %132, %32
  call void @llvm.lifetime.end.p0(i64 4, ptr %14) #7
  call void @llvm.lifetime.end.p0(i64 8, ptr %13) #7
  call void @llvm.lifetime.end.p0(i64 8, ptr %12) #7
  call void @llvm.lifetime.end.p0(i64 8, ptr %11) #7
  call void @llvm.lifetime.end.p0(i64 4, ptr %10) #7
  %135 = load i32, ptr %5, align 4
  ret i32 %135
}