; Function Attrs: null_pointer_is_valid sspstrong uwtable
define internal fastcc i32 @parse_SwitchCongestionLog(ptr noundef %0, ptr noundef %1, i32 %.0.val, ptr noundef readonly captures(none) %2) unnamed_addr #0 {
  %.not = icmp eq ptr %0, null
  br i1 %.not, label %.loopexit, label %4

4:                                                ; preds = %3
  %5 = getelementptr inbounds nuw i8, ptr %2, i64 3
  %6 = load i8, ptr %5, align 1
  switch i8 %6, label %7 [
    i8 1, label %.loopexit
    i8 18, label %.loopexit
  ]

7:                                                ; preds = %4
  %8 = load i32, ptr @hf_opa_SwitchCongestionLog, align 4
  %9 = tail call ptr @proto_tree_add_item(ptr noundef nonnull %0, i32 noundef %8, ptr noundef %1, i32 noundef %.0.val, i32 noundef 1576, i32 noundef 0)
  %10 = load i32, ptr @ett_switchcongestionlog, align 4
  %11 = tail call ptr @proto_item_add_subtree(ptr noundef %9, i32 noundef %10)
  %12 = load i32, ptr @hf_opa_SwitchCongestionLog_LogType, align 4
  %13 = tail call ptr @proto_tree_add_item(ptr noundef %11, i32 noundef %12, ptr noundef %1, i32 noundef %.0.val, i32 noundef 1, i32 noundef 0)
  %14 = add i32 %.0.val, 1
  %15 = load i32, ptr @hf_opa_SwitchCongestionLog_CongestionFlags, align 4
  %16 = tail call ptr @proto_tree_add_item(ptr noundef %11, i32 noundef %15, ptr noundef %1, i32 noundef %14, i32 noundef 1, i32 noundef 0)
  %17 = add i32 %.0.val, 2
  %18 = load i32, ptr @hf_opa_SwitchCongestionLog_LogEventsCounter, align 4
  %19 = tail call ptr @proto_tree_add_item(ptr noundef %11, i32 noundef %18, ptr noundef %1, i32 noundef %17, i32 noundef 2, i32 noundef 0)
  %20 = add i32 %.0.val, 4
  %21 = load i32, ptr @hf_opa_SwitchCongestionLog_CurrentTimeStamp, align 4
  %22 = tail call ptr @proto_tree_add_item(ptr noundef %11, i32 noundef %21, ptr noundef %1, i32 noundef %20, i32 noundef 4, i32 noundef 0)
  %23 = add i32 %.0.val, 8
  %24 = load i32, ptr @hf_opa_SwitchCongestionLog_PortMap, align 4
  %25 = tail call ptr @proto_tree_add_item(ptr noundef %11, i32 noundef %24, ptr noundef %1, i32 noundef %23, i32 noundef 32, i32 noundef 0)
  %26 = add i32 %.0.val, 40
  br label %27

27:                                               ; preds = %7, %27
  %.02 = phi i32 [ 0, %7 ], [ %47, %27 ]
  %.0601 = phi i32 [ %26, %7 ], [ %46, %27 ]
  %28 = load i32, ptr @ett_switchcongestionlog_entry, align 4
  %29 = tail call ptr (ptr, ptr, i32, i32, i32, ptr, ptr, ...) @proto_tree_add_subtree_format(ptr noundef %11, ptr noundef %1, i32 noundef %.0601, i32 noundef 16, i32 noundef %28, ptr noundef null, ptr noundef nonnull @.str.2364, i32 noundef %.02)
  %30 = load i32, ptr @hf_opa_SwitchCongestionLog_SLID, align 4
  %31 = tail call ptr @proto_tree_add_item(ptr noundef %29, i32 noundef %30, ptr noundef %1, i32 noundef %.0601, i32 noundef 4, i32 noundef 0)
  %32 = add i32 %.0601, 4
  %33 = load i32, ptr @hf_opa_SwitchCongestionLog_DLID, align 4
  %34 = tail call ptr @proto_tree_add_item(ptr noundef %29, i32 noundef %33, ptr noundef %1, i32 noundef %32, i32 noundef 4, i32 noundef 0)
  %35 = add i32 %.0601, 8
  %36 = load i32, ptr @hf_opa_SwitchCongestionLog_SC, align 4
  %37 = tail call ptr @proto_tree_add_item(ptr noundef %29, i32 noundef %36, ptr noundef %1, i32 noundef %35, i32 noundef 1, i32 noundef 0)
  %38 = load i32, ptr @hf_opa_SwitchCongestionLog_reserved, align 4
  %39 = tail call ptr @proto_tree_add_item(ptr noundef %29, i32 noundef %38, ptr noundef %1, i32 noundef %35, i32 noundef 1, i32 noundef 0)
  %40 = add i32 %.0601, 9
  %41 = load i32, ptr @hf_opa_reserved24, align 4
  %42 = tail call ptr @proto_tree_add_item(ptr noundef %29, i32 noundef %41, ptr noundef %1, i32 noundef %40, i32 noundef 3, i32 noundef 0)
  %43 = add i32 %.0601, 12
  %44 = load i32, ptr @hf_opa_SwitchCongestionLog_TimeStamp, align 4
  %45 = tail call ptr @proto_tree_add_item(ptr noundef %29, i32 noundef %44, ptr noundef %1, i32 noundef %43, i32 noundef 4, i32 noundef 0)
  %46 = add i32 %.0601, 16
  %47 = add nuw nsw i32 %.02, 1
  %exitcond.not = icmp eq i32 %47, 96
  br i1 %exitcond.not, label %.loopexit, label %27, !llvm.loop !48

.loopexit:                                        ; preds = %27, %3, %4, %4
  %.059 = phi i32 [ %.0.val, %4 ], [ %.0.val, %4 ], [ %.0.val, %3 ], [ %46, %27 ]
  ret i32 %.059
}